; Function Attrs: nounwind sspstrong uwtable
define internal fastcc i64 @gzfile_new(i64 noundef %0, ptr noundef %1, ptr noundef %2) unnamed_addr #0 {
  %4 = tail call i64 @rb_data_typed_object_zalloc(i64 noundef %0, i64 noundef 264, ptr noundef nonnull @gzfile_data_type) #18
  %5 = inttoptr i64 %4 to ptr
  %6 = getelementptr inbounds nuw i8, ptr %5, i64 24
  %7 = load i64, ptr %6, align 8, !tbaa !76
  %8 = and i64 %7, 2
  %.not.i = icmp eq i64 %8, 0
  %9 = getelementptr inbounds nuw i8, ptr %5, i64 32
  br i1 %.not.i, label %10, label %RTYPEDDATA_GET_DATA.exit

10:                                               ; preds = %3
  %11 = load ptr, ptr %9, align 8, !tbaa !79
  br label %RTYPEDDATA_GET_DATA.exit

RTYPEDDATA_GET_DATA.exit:                         ; preds = %3, %10
  %12 = phi ptr [ %11, %10 ], [ %9, %3 ]
  store i64 0, ptr %12, align 8, !tbaa !42
  %13 = getelementptr inbounds nuw i8, ptr %12, i64 8
  store i64 4, ptr %13, align 8, !tbaa !43
  %14 = getelementptr inbounds nuw i8, ptr %12, i64 16
  store i64 4, ptr %14, align 8, !tbaa !51
  %15 = tail call i64 @rb_mutex_new() #18
  %16 = getelementptr inbounds nuw i8, ptr %12, i64 24
  store i64 %15, ptr %16, align 8, !tbaa !70
  %17 = getelementptr inbounds nuw i8, ptr %12, i64 32
  %18 = getelementptr inbounds nuw i8, ptr %12, i64 96
  store ptr @zlib_mem_alloc, ptr %18, align 8, !tbaa !71
  %19 = getelementptr inbounds nuw i8, ptr %12, i64 104
  store ptr @zlib_mem_free, ptr %19, align 8, !tbaa !72
  %20 = getelementptr inbounds nuw i8, ptr %12, i64 112
  store ptr null, ptr %20, align 8, !tbaa !73
  %21 = getelementptr inbounds nuw i8, ptr %12, i64 80
  store ptr null, ptr %21, align 8, !tbaa !59
  store ptr null, ptr %17, align 8, !tbaa !74
  %22 = getelementptr inbounds nuw i8, ptr %12, i64 40
  store i32 0, ptr %22, align 8, !tbaa !75
  %23 = getelementptr inbounds nuw i8, ptr %12, i64 56
  store ptr null, ptr %23, align 8, !tbaa !47
  %24 = getelementptr inbounds nuw i8, ptr %12, i64 64
  store i32 0, ptr %24, align 8, !tbaa !36
  %25 = getelementptr inbounds nuw i8, ptr %12, i64 144
  store ptr %1, ptr %25, align 8, !tbaa !56
  %26 = load i64, ptr %12, align 8, !tbaa !113
  %27 = or i64 %26, 16
  store i64 %27, ptr %12, align 8, !tbaa !113
  %28 = getelementptr inbounds nuw i8, ptr %12, i64 152
  store i64 4, ptr %28, align 8, !tbaa !117
  %29 = getelementptr inbounds nuw i8, ptr %12, i64 160
  store i32 0, ptr %29, align 8, !tbaa !120
  %30 = getelementptr inbounds nuw i8, ptr %12, i64 168
  store i64 0, ptr %30, align 8, !tbaa !119
  %31 = getelementptr inbounds nuw i8, ptr %12, i64 164
  store i32 3, ptr %31, align 4, !tbaa !121
  %32 = getelementptr inbounds nuw i8, ptr %12, i64 176
  store i64 4, ptr %32, align 8, !tbaa !122
  %33 = getelementptr inbounds nuw i8, ptr %12, i64 184
  store i64 4, ptr %33, align 8, !tbaa !123
  %34 = tail call i64 @crc32_z(i64 noundef 0, ptr noundef null, i64 noundef 0) #18
  %35 = getelementptr inbounds nuw i8, ptr %12, i64 192
  store i64 %34, ptr %35, align 8, !tbaa !118
  %36 = getelementptr inbounds nuw i8, ptr %12, i64 204
  store i32 0, ptr %36, align 4, !tbaa !124
  %37 = getelementptr inbounds nuw i8, ptr %12, i64 208
  store i64 0, ptr %37, align 8, !tbaa !156
  %38 = getelementptr inbounds nuw i8, ptr %12, i64 216
  store ptr %2, ptr %38, align 8, !tbaa !131
  %39 = tail call ptr @rb_default_external_encoding() #18
  %40 = getelementptr inbounds nuw i8, ptr %12, i64 224
  store ptr %39, ptr %40, align 8, !tbaa !141
  %41 = getelementptr inbounds nuw i8, ptr %12, i64 232
  %42 = getelementptr inbounds nuw i8, ptr %12, i64 200
  store i32 0, ptr %42, align 8, !tbaa !138
  %43 = getelementptr inbounds nuw i8, ptr %12, i64 248
  tail call void @llvm.memset.p0.i64(ptr noundef nonnull align 8 dereferenceable(16) %41, i8 0, i64 16, i1 false)
  store i64 4, ptr %43, align 8, !tbaa !143
  %44 = getelementptr inbounds nuw i8, ptr %12, i64 256
  store i64 4, ptr %44, align 8, !tbaa !195
  ret i64 %4
}